; Function Attrs: mustprogress uwtable
define hidden noundef i32 @_ZNK4cvc58internal16DTypeConstructor23getSelectorIndexForNameERKNSt7__cxx1112basic_stringIcSt11char_traitsIcESaIcEEE(ptr nocapture noundef nonnull readonly align 8 dereferenceable(264) %this, ptr noundef nonnull align 8 dereferenceable(32) %name) local_unnamed_addr #3 align 2 personality ptr @__gxx_personality_v0 {
entry:
  %d_args.i = getelementptr inbounds i8, ptr %this, i64 80
  %_M_finish.i.i = getelementptr inbounds i8, ptr %this, i64 88
  %0 = load ptr, ptr %_M_finish.i.i, align 8
  %1 = load ptr, ptr %d_args.i, align 8
  %cmp6.not = icmp eq ptr %0, %1
  br i1 %cmp6.not, label %return, label %for.body.preheader

for.body.preheader:                               ; preds = %entry
  %sub.ptr.lhs.cast.i.i = ptrtoint ptr %0 to i64
  %sub.ptr.rhs.cast.i.i = ptrtoint ptr %1 to i64
  %sub.ptr.sub.i.i = sub i64 %sub.ptr.lhs.cast.i.i, %sub.ptr.rhs.cast.i.i
  %sub.ptr.div.i.i = ashr exact i64 %sub.ptr.sub.i.i, 4
  %umax = tail call i64 @llvm.umax.i64(i64 %sub.ptr.div.i.i, i64 1)
  br label %for.body

for.body:                                         ; preds = %for.body.preheader, %for.inc
  %i.07 = phi i64 [ %inc, %for.inc ], [ 0, %for.body.preheader ]
  %2 = load ptr, ptr %d_args.i, align 8
  %add.ptr.i = getelementptr inbounds %"class.std::shared_ptr", ptr %2, i64 %i.07
  %3 = load ptr, ptr %add.ptr.i, align 8
  %call4 = tail call noundef nonnull align 8 dereferenceable(32) ptr @_ZNK4cvc58internal13DTypeSelector7getNameB5cxx11Ev(ptr noundef nonnull align 8 dereferenceable(57) %3)
  %call.i = tail call noundef i64 @_ZNKSt7__cxx1112basic_stringIcSt11char_traitsIcESaIcEE4sizeEv(ptr noundef nonnull align 8 dereferenceable(32) %call4) #22
  %call1.i = tail call noundef i64 @_ZNKSt7__cxx1112basic_stringIcSt11char_traitsIcESaIcEE4sizeEv(ptr noundef nonnull align 8 dereferenceable(32) %name) #22
  %cmp.i = icmp eq i64 %call.i, %call1.i
  br i1 %cmp.i, label %land.rhs.i, label %for.inc

land.rhs.i:                                       ; preds = %for.body
  %call2.i = tail call noundef ptr @_ZNKSt7__cxx1112basic_stringIcSt11char_traitsIcESaIcEE4dataEv(ptr noundef nonnull align 8 dereferenceable(32) %call4) #22
  %call3.i = tail call noundef ptr @_ZNKSt7__cxx1112basic_stringIcSt11char_traitsIcESaIcEE4dataEv(ptr noundef nonnull align 8 dereferenceable(32) %name) #22
  %call4.i = tail call noundef i64 @_ZNKSt7__cxx1112basic_stringIcSt11char_traitsIcESaIcEE4sizeEv(ptr noundef nonnull align 8 dereferenceable(32) %call4) #22
  %cmp.i.i = icmp eq i64 %call4.i, 0
  br i1 %cmp.i.i, label %if.then, label %_ZSteqIcEN9__gnu_cxx11__enable_ifIXsr9__is_charIT_EE7__valueEbE6__typeERKNSt7__cxx1112basic_stringIS2_St11char_traitsIS2_ESaIS2_EEESC_.exit

_ZSteqIcEN9__gnu_cxx11__enable_ifIXsr9__is_charIT_EE7__valueEbE6__typeERKNSt7__cxx1112basic_stringIS2_St11char_traitsIS2_ESaIS2_EEESC_.exit: ; preds = %land.rhs.i
  %bcmp.i = tail call i32 @bcmp(ptr %call2.i, ptr %call3.i, i64 %call4.i)
  %4 = icmp eq i32 %bcmp.i, 0
  br i1 %4, label %if.then, label %for.inc

if.then:                                          ; preds = %land.rhs.i, %_ZSteqIcEN9__gnu_cxx11__enable_ifIXsr9__is_charIT_EE7__valueEbE6__typeERKNSt7__cxx1112basic_stringIS2_St11char_traitsIS2_ESaIS2_EEESC_.exit
  %conv = trunc i64 %i.07 to i32
  br label %return

for.inc:                                          ; preds = %for.body, %_ZSteqIcEN9__gnu_cxx11__enable_ifIXsr9__is_charIT_EE7__valueEbE6__typeERKNSt7__cxx1112basic_stringIS2_St11char_traitsIS2_ESaIS2_EEESC_.exit
  %inc = add nuw i64 %i.07, 1
  %exitcond.not = icmp eq i64 %inc, %umax
  br i1 %exitcond.not, label %return, label %for.body, !llvm.loop !59

return:                                           ; preds = %for.inc, %entry, %if.then
  %retval.0 = phi i32 [ %conv, %if.then ], [ -1, %entry ], [ -1, %for.inc ]
  ret i32 %retval.0
}